target datalayout = "e-m:e-p270:32:32-p271:32:32-p272:64:64-i64:64-i128:128-f80:128-n8:16:32:64-S128"
target triple = "x86_64-pc-linux-gnu"

%struct.MessageHeader = type { [4 x i8], %struct.Version, i8, i8, i32, i32, i32, ptr }
%struct.Version = type { i8, i8 }

; Function Attrs: nounwind null_pointer_is_valid sspstrong uwtable
define zeroext i1 @is_big_endian(ptr noundef %0) #5 {
  %2 = alloca ptr, align 8
  %3 = alloca i8, align 1
  store ptr %0, ptr %2, align 8
  call void @llvm.lifetime.start.p0(i64 1, ptr %3) #14
  store i8 0, ptr %3, align 1
  %4 = load ptr, ptr %2, align 8
  %5 = getelementptr inbounds nuw %struct.MessageHeader, ptr %4, i32 0, i32 1
  %6 = getelementptr inbounds nuw %struct.Version, ptr %5, i32 0, i32 1
  %7 = load i8, ptr %6, align 1
  %8 = zext i8 %7 to i32
  switch i32 %8, label %27 [
    i32 2, label %9
    i32 1, label %9
    i32 0, label %19
  ]

9:                                                ; preds = %1, %1
  %10 = load ptr, ptr %2, align 8
  %11 = getelementptr inbounds nuw %struct.MessageHeader, ptr %10, i32 0, i32 2
  %12 = load i8, ptr %11, align 2
  %13 = zext i8 %12 to i32
  %14 = and i32 %13, 1
  %15 = icmp ne i32 %14, 0
  br i1 %15, label %16, label %17

16:                                               ; preds = %9
  store i8 0, ptr %3, align 1
  br label %18

17:                                               ; preds = %9
  store i8 1, ptr %3, align 1
  br label %18

18:                                               ; preds = %17, %16
  br label %28

19:                                               ; preds = %1
  %20 = load ptr, ptr %2, align 8
  %21 = getelementptr inbounds nuw %struct.MessageHeader, ptr %20, i32 0, i32 2
  %22 = load i8, ptr %21, align 2
  %23 = icmp ne i8 %22, 0
  br i1 %23, label %24, label %25

24:                                               ; preds = %19
  store i8 0, ptr %3, align 1
  br label %26

25:                                               ; preds = %19
  store i8 1, ptr %3, align 1
  br label %26

26:                                               ; preds = %25, %24
  br label %28

27:                                               ; preds = %1
  br label %28

28:                                               ; preds = %27, %26, %18
  %29 = load i8, ptr %3, align 1, !range !8, !noundef !9
  %30 = trunc i8 %29 to i1
  call void @llvm.lifetime.end.p0(i64 1, ptr %3) #14
  ret i1 %30
}