; Function Attrs: mustprogress nofree norecurse nosync nounwind null_pointer_is_valid sspstrong willreturn memory(argmem: read) uwtable
define zeroext i1 @is_big_endian(ptr noundef readonly captures(none) %0) local_unnamed_addr #4 {
  %2 = getelementptr inbounds nuw i8, ptr %0, i64 5
  %3 = load i8, ptr %2, align 1
  switch i8 %3, label %11 [
    i8 2, label %4
    i8 1, label %4
    i8 0, label %8
  ]

4:                                                ; preds = %1, %1
  %5 = getelementptr inbounds nuw i8, ptr %0, i64 6
  %6 = load i8, ptr %5, align 2
  %7 = and i8 %6, 1
  %.not3 = icmp eq i8 %7, 0
  br label %11

8:                                                ; preds = %1
  %9 = getelementptr inbounds nuw i8, ptr %0, i64 6
  %10 = load i8, ptr %9, align 2
  %.not = icmp eq i8 %10, 0
  br label %11

11:                                               ; preds = %8, %4, %1
  %.0 = phi i1 [ false, %1 ], [ %.not3, %4 ], [ %.not, %8 ]
  ret i1 %.0
}